target datalayout = "e-m:e-p270:32:32-p271:32:32-p272:64:64-i64:64-i128:128-f80:128-n8:16:32:64-S128"
target triple = "x86_64-pc-linux-gnu"

@sane_ctype = external constant [256 x i8], align 16
@.str.93 = private unnamed_addr constant [115 x i8] c"%s: no such path in the working tree.\0AUse 'git <command> -- <path>...' to specify paths that do not exist locally.\00", align 1
@.str.94 = private unnamed_addr constant [176 x i8] c"ambiguous argument '%s': unknown revision or path not in the working tree.\0AUse '--' to separate paths from revisions, like this:\0A'git <command> [<revision>...] -- [<file>...]'\00", align 1

; Function Attrs: noreturn nounwind uwtable
define internal void @die_verify_filename(ptr noundef %0, ptr noundef %1, ptr noundef %2, i32 noundef %3) #8 {
  %5 = alloca ptr, align 8
  %6 = alloca ptr, align 8
  %7 = alloca ptr, align 8
  %8 = alloca i32, align 4
  store ptr %0, ptr %5, align 8, !tbaa !14
  store ptr %1, ptr %6, align 8, !tbaa !4
  store ptr %2, ptr %7, align 8, !tbaa !4
  store i32 %3, ptr %8, align 4, !tbaa !9
  %9 = load i32, ptr %8, align 4, !tbaa !9
  %10 = icmp ne i32 %9, 0
  br i1 %10, label %14, label %11

11:                                               ; preds = %4
  %12 = call ptr @_(ptr noundef @.str.93)
  %13 = load ptr, ptr %7, align 8, !tbaa !4
  call void (ptr, ...) @die(ptr noundef %12, ptr noundef %13) #15
  unreachable

14:                                               ; preds = %4
  %15 = load ptr, ptr %7, align 8, !tbaa !4
  %16 = getelementptr inbounds i8, ptr %15, i64 0
  %17 = load i8, ptr %16, align 1, !tbaa !13
  %18 = sext i8 %17 to i32
  %19 = icmp eq i32 %18, 58
  br i1 %19, label %20, label %30

20:                                               ; preds = %14
  %21 = load ptr, ptr %7, align 8, !tbaa !4
  %22 = getelementptr inbounds i8, ptr %21, i64 1
  %23 = load i8, ptr %22, align 1, !tbaa !13
  %24 = zext i8 %23 to i64
  %25 = getelementptr inbounds nuw [256 x i8], ptr @sane_ctype, i64 0, i64 %24
  %26 = load i8, ptr %25, align 1, !tbaa !13
  %27 = zext i8 %26 to i32
  %28 = and i32 %27, 6
  %29 = icmp ne i32 %28, 0
  br i1 %29, label %30, label %34

30:                                               ; preds = %20, %14
  %31 = load ptr, ptr %5, align 8, !tbaa !14
  %32 = load ptr, ptr %7, align 8, !tbaa !4
  %33 = load ptr, ptr %6, align 8, !tbaa !4
  call void @maybe_die_on_misspelt_object_name(ptr noundef %31, ptr noundef %32, ptr noundef %33)
  br label %34

34:                                               ; preds = %30, %20
  %35 = call ptr @_(ptr noundef @.str.94)
  %36 = load ptr, ptr %7, align 8, !tbaa !4
  call void (ptr, ...) @die(ptr noundef %35, ptr noundef %36) #15
  unreachable
}