; Function Attrs: noreturn nounwind uwtable
define internal fastcc void @die_verify_filename(ptr noundef %0, ptr noundef %1, ptr noundef %2, i32 noundef %3) unnamed_addr #9 {
  %.not = icmp eq i32 %3, 0
  br i1 %.not, label %5, label %7

5:                                                ; preds = %4
  %6 = tail call fastcc ptr @_(ptr noundef nonnull @.str.93)
  tail call void (ptr, ...) @die(ptr noundef %6, ptr noundef %2) #26
  unreachable

7:                                                ; preds = %4
  %8 = load i8, ptr %2, align 1, !tbaa !4
  %9 = icmp eq i8 %8, 58
  br i1 %9, label %10, label %17

10:                                               ; preds = %7
  %11 = getelementptr inbounds nuw i8, ptr %2, i64 1
  %12 = load i8, ptr %11, align 1, !tbaa !4
  %13 = zext i8 %12 to i64
  %14 = getelementptr inbounds nuw [256 x i8], ptr @sane_ctype, i64 0, i64 %13
  %15 = load i8, ptr %14, align 1, !tbaa !4
  %16 = and i8 %15, 6
  %.not7 = icmp eq i8 %16, 0
  br i1 %.not7, label %18, label %17

17:                                               ; preds = %10, %7
  tail call void @maybe_die_on_misspelt_object_name(ptr noundef %0, ptr noundef nonnull %2, ptr noundef %1) #25
  br label %18

18:                                               ; preds = %17, %10
  %19 = tail call fastcc ptr @_(ptr noundef nonnull @.str.94)
  tail call void (ptr, ...) @die(ptr noundef %19, ptr noundef nonnull %2) #26
  unreachable
}